target datalayout = "e-m:e-p270:32:32-p271:32:32-p272:64:64-i64:64-i128:128-f80:128-n8:16:32:64-S128"
target triple = "x86_64-pc-linux-gnu"

%struct.FunctionCallInfoBaseData = type { ptr, ptr, ptr, i32, i8, i16, [0 x %struct.NullableDatum] }
%struct.NullableDatum = type { i64, i8 }
%struct.StringInfoData = type { ptr, i32, i32, i32 }

@.str.14 = private unnamed_addr constant [7 x i8] c"minus \00", align 1
@.str.15 = private unnamed_addr constant [14 x i8] c" quadrillion \00", align 1
@.str.16 = private unnamed_addr constant [11 x i8] c" trillion \00", align 1
@.str.17 = private unnamed_addr constant [10 x i8] c" billion \00", align 1
@.str.18 = private unnamed_addr constant [10 x i8] c" million \00", align 1
@.str.19 = private unnamed_addr constant [11 x i8] c" thousand \00", align 1
@.str.20 = private unnamed_addr constant [5 x i8] c"zero\00", align 1
@.str.21 = private unnamed_addr constant [13 x i8] c" dollar and \00", align 1
@.str.22 = private unnamed_addr constant [14 x i8] c" dollars and \00", align 1
@.str.23 = private unnamed_addr constant [6 x i8] c" cent\00", align 1
@.str.24 = private unnamed_addr constant [7 x i8] c" cents\00", align 1

; Function Attrs: inlinehint nounwind uwtable
define internal i64 @DatumGetInt64(i64 noundef %0) #2 {
  %2 = alloca i64, align 8
  store i64 %0, ptr %2, align 8
  %3 = load i64, ptr %2, align 8
  ret i64 %3
}

; Function Attrs: inlinehint nounwind uwtable
define internal i64 @PointerGetDatum(ptr noundef %0) #2 {
  %2 = alloca ptr, align 8
  store ptr %0, ptr %2, align 8
  %3 = load ptr, ptr %2, align 8
  %4 = ptrtoint ptr %3 to i64
  ret i64 %4
}

; Function Attrs: inlinehint nounwind uwtable
define internal i64 @DatumGetCash(i64 noundef %0) #2 {
  %2 = alloca i64, align 8
  store i64 %0, ptr %2, align 8
  %3 = load i64, ptr %2, align 8
  %4 = call i64 @DatumGetInt64(i64 noundef %3)
  ret i64 %4
}

; Function Attrs: nounwind uwtable
define dso_local i64 @cash_words(ptr noundef %0) #0 {
  %2 = alloca ptr, align 8
  %3 = alloca i64, align 8
  %4 = alloca i64, align 8
  %5 = alloca %struct.StringInfoData, align 8
  %6 = alloca ptr, align 8
  %7 = alloca i64, align 8
  %8 = alloca i64, align 8
  %9 = alloca i64, align 8
  %10 = alloca i64, align 8
  %11 = alloca i64, align 8
  %12 = alloca i64, align 8
  %13 = alloca i64, align 8
  %14 = alloca i64, align 8
  store ptr %0, ptr %2, align 8
  call void @llvm.lifetime.start.p0(i64 8, ptr %3) #11
  %15 = load ptr, ptr %2, align 8
  %16 = getelementptr inbounds nuw %struct.FunctionCallInfoBaseData, ptr %15, i32 0, i32 6
  %17 = getelementptr inbounds [0 x %struct.NullableDatum], ptr %16, i64 0, i64 0
  %18 = getelementptr inbounds nuw %struct.NullableDatum, ptr %17, i32 0, i32 0
  %19 = load i64, ptr %18, align 8
  %20 = call i64 @DatumGetCash(i64 noundef %19)
  store i64 %20, ptr %3, align 8
  call void @llvm.lifetime.start.p0(i64 8, ptr %4) #11
  call void @llvm.lifetime.start.p0(i64 24, ptr %5) #11
  call void @llvm.lifetime.start.p0(i64 8, ptr %6) #11
  call void @llvm.lifetime.start.p0(i64 8, ptr %7) #11
  call void @llvm.lifetime.start.p0(i64 8, ptr %8) #11
  call void @llvm.lifetime.start.p0(i64 8, ptr %9) #11
  call void @llvm.lifetime.start.p0(i64 8, ptr %10) #11
  call void @llvm.lifetime.start.p0(i64 8, ptr %11) #11
  call void @llvm.lifetime.start.p0(i64 8, ptr %12) #11
  call void @llvm.lifetime.start.p0(i64 8, ptr %13) #11
  call void @llvm.lifetime.start.p0(i64 8, ptr %14) #11
  call void @initStringInfo(ptr noundef %5)
  %21 = load i64, ptr %3, align 8
  %22 = icmp slt i64 %21, 0
  br i1 %22, label %23, label %26

23:                                               ; preds = %1
  %24 = load i64, ptr %3, align 8
  %25 = sub i64 0, %24
  store i64 %25, ptr %3, align 8
  call void @appendStringInfoString(ptr noundef %5, ptr noundef @.str.14)
  br label %26

26:                                               ; preds = %23, %1
  %27 = load i64, ptr %3, align 8
  store i64 %27, ptr %4, align 8
  %28 = load i64, ptr %4, align 8
  %29 = udiv i64 %28, 100
  store i64 %29, ptr %7, align 8
  %30 = load i64, ptr %4, align 8
  %31 = urem i64 %30, 100
  store i64 %31, ptr %8, align 8
  %32 = load i64, ptr %4, align 8
  %33 = udiv i64 %32, 100
  %34 = urem i64 %33, 1000
  store i64 %34, ptr %9, align 8
  %35 = load i64, ptr %4, align 8
  %36 = udiv i64 %35, 100000
  %37 = urem i64 %36, 1000
  store i64 %37, ptr %10, align 8
  %38 = load i64, ptr %4, align 8
  %39 = udiv i64 %38, 100000000
  %40 = urem i64 %39, 1000
  store i64 %40, ptr %11, align 8
  %41 = load i64, ptr %4, align 8
  %42 = udiv i64 %41, 100000000000
  %43 = urem i64 %42, 1000
  store i64 %43, ptr %12, align 8
  %44 = load i64, ptr %4, align 8
  %45 = udiv i64 %44, 100000000000000
  %46 = urem i64 %45, 1000
  store i64 %46, ptr %13, align 8
  %47 = load i64, ptr %4, align 8
  %48 = udiv i64 %47, 100000000000000000
  %49 = urem i64 %48, 1000
  store i64 %49, ptr %14, align 8
  %50 = load i64, ptr %14, align 8
  %51 = icmp ne i64 %50, 0
  br i1 %51, label %52, label %54

52:                                               ; preds = %26
  %53 = load i64, ptr %14, align 8
  call void @append_num_word(ptr noundef %5, i64 noundef %53)
  call void @appendStringInfoString(ptr noundef %5, ptr noundef @.str.15)
  br label %54

54:                                               ; preds = %52, %26
  %55 = load i64, ptr %13, align 8
  %56 = icmp ne i64 %55, 0
  br i1 %56, label %57, label %59

57:                                               ; preds = %54
  %58 = load i64, ptr %13, align 8
  call void @append_num_word(ptr noundef %5, i64 noundef %58)
  call void @appendStringInfoString(ptr noundef %5, ptr noundef @.str.16)
  br label %59

59:                                               ; preds = %57, %54
  %60 = load i64, ptr %12, align 8
  %61 = icmp ne i64 %60, 0
  br i1 %61, label %62, label %64

62:                                               ; preds = %59
  %63 = load i64, ptr %12, align 8
  call void @append_num_word(ptr noundef %5, i64 noundef %63)
  call void @appendStringInfoString(ptr noundef %5, ptr noundef @.str.17)
  br label %64

64:                                               ; preds = %62, %59
  %65 = load i64, ptr %11, align 8
  %66 = icmp ne i64 %65, 0
  br i1 %66, label %67, label %69

67:                                               ; preds = %64
  %68 = load i64, ptr %11, align 8
  call void @append_num_word(ptr noundef %5, i64 noundef %68)
  call void @appendStringInfoString(ptr noundef %5, ptr noundef @.str.18)
  br label %69

69:                                               ; preds = %67, %64
  %70 = load i64, ptr %10, align 8
  %71 = icmp ne i64 %70, 0
  br i1 %71, label %72, label %74

72:                                               ; preds = %69
  %73 = load i64, ptr %10, align 8
  call void @append_num_word(ptr noundef %5, i64 noundef %73)
  call void @appendStringInfoString(ptr noundef %5, ptr noundef @.str.19)
  br label %74

74:                                               ; preds = %72, %69
  %75 = load i64, ptr %9, align 8
  %76 = icmp ne i64 %75, 0
  br i1 %76, label %77, label %79

77:                                               ; preds = %74
  %78 = load i64, ptr %9, align 8
  call void @append_num_word(ptr noundef %5, i64 noundef %78)
  br label %79

79:                                               ; preds = %77, %74
  %80 = load i64, ptr %7, align 8
  %81 = icmp eq i64 %80, 0
  br i1 %81, label %82, label %83

82:                                               ; preds = %79
  call void @appendStringInfoString(ptr noundef %5, ptr noundef @.str.20)
  br label %83

83:                                               ; preds = %82, %79
  %84 = load i64, ptr %7, align 8
  %85 = icmp eq i64 %84, 1
  %86 = select i1 %85, ptr @.str.21, ptr @.str.22
  call void @appendStringInfoString(ptr noundef %5, ptr noundef %86)
  %87 = load i64, ptr %8, align 8
  call void @append_num_word(ptr noundef %5, i64 noundef %87)
  %88 = load i64, ptr %8, align 8
  %89 = icmp eq i64 %88, 1
  %90 = select i1 %89, ptr @.str.23, ptr @.str.24
  call void @appendStringInfoString(ptr noundef %5, ptr noundef %90)
  %91 = getelementptr inbounds nuw %struct.StringInfoData, ptr %5, i32 0, i32 0
  %92 = load ptr, ptr %91, align 8
  %93 = getelementptr inbounds i8, ptr %92, i64 0
  %94 = load i8, ptr %93, align 1
  %95 = call zeroext i8 @pg_toupper(i8 noundef zeroext %94)
  %96 = getelementptr inbounds nuw %struct.StringInfoData, ptr %5, i32 0, i32 0
  %97 = load ptr, ptr %96, align 8
  %98 = getelementptr inbounds i8, ptr %97, i64 0
  store i8 %95, ptr %98, align 1
  %99 = getelementptr inbounds nuw %struct.StringInfoData, ptr %5, i32 0, i32 0
  %100 = load ptr, ptr %99, align 8
  %101 = getelementptr inbounds nuw %struct.StringInfoData, ptr %5, i32 0, i32 1
  %102 = load i32, ptr %101, align 8
  %103 = call ptr @cstring_to_text_with_len(ptr noundef %100, i32 noundef %102)
  store ptr %103, ptr %6, align 8
  %104 = getelementptr inbounds nuw %struct.StringInfoData, ptr %5, i32 0, i32 0
  %105 = load ptr, ptr %104, align 8
  call void @pfree(ptr noundef %105)
  %106 = load ptr, ptr %6, align 8
  %107 = call i64 @PointerGetDatum(ptr noundef %106)
  call void @llvm.lifetime.end.p0(i64 8, ptr %14) #11
  call void @llvm.lifetime.end.p0(i64 8, ptr %13) #11
  call void @llvm.lifetime.end.p0(i64 8, ptr %12) #11
  call void @llvm.lifetime.end.p0(i64 8, ptr %11) #11
  call void @llvm.lifetime.end.p0(i64 8, ptr %10) #11
  call void @llvm.lifetime.end.p0(i64 8, ptr %9) #11
  call void @llvm.lifetime.end.p0(i64 8, ptr %8) #11
  call void @llvm.lifetime.end.p0(i64 8, ptr %7) #11
  call void @llvm.lifetime.end.p0(i64 8, ptr %6) #11
  call void @llvm.lifetime.end.p0(i64 24, ptr %5) #11
  call void @llvm.lifetime.end.p0(i64 8, ptr %4) #11
  call void @llvm.lifetime.end.p0(i64 8, ptr %3) #11
  ret i64 %107
}