; Function Attrs: nounwind uwtable
define dso_local i64 @cash_words(ptr noundef readonly captures(none) %0) local_unnamed_addr #0 {
  %2 = alloca %struct.StringInfoData, align 8
  %3 = getelementptr inbounds nuw i8, ptr %0, i64 32
  %4 = load i64, ptr %3, align 8
  call void @llvm.lifetime.start.p0(i64 24, ptr nonnull %2) #13
  call void @initStringInfo(ptr noundef nonnull %2) #13
  %5 = icmp slt i64 %4, 0
  br i1 %5, label %6, label %8

6:                                                ; preds = %1
  %7 = sub i64 0, %4
  call void @appendStringInfoString(ptr noundef nonnull %2, ptr noundef nonnull @.str.14) #13
  br label %8

8:                                                ; preds = %6, %1
  %.0 = phi i64 [ %7, %6 ], [ %4, %1 ]
  %9 = udiv i64 %.0, 100
  %10 = urem i64 %.0, 100
  %11 = urem i64 %9, 1000
  %12 = udiv i64 %.0, 100000
  %13 = urem i64 %12, 1000
  %14 = udiv i64 %.0, 100000000
  %15 = urem i64 %14, 1000
  %16 = udiv i64 %.0, 100000000000
  %.lhs.trunc = trunc nuw nsw i64 %16 to i32
  %17 = urem i32 %.lhs.trunc, 1000
  %.zext = zext nneg i32 %17 to i64
  %18 = udiv i64 %.0, 100000000000000
  %.lhs.trunc40 = trunc nuw nsw i64 %18 to i32
  %19 = urem i32 %.lhs.trunc40, 1000
  %.zext41 = zext nneg i32 %19 to i64
  %.not = icmp ult i64 %.0, 100000000000000000
  br i1 %.not, label %22, label %20

20:                                               ; preds = %8
  %21 = udiv i64 %.0, 100000000000000000
  call fastcc void @append_num_word(ptr noundef %2, i64 noundef %21)
  call void @appendStringInfoString(ptr noundef nonnull %2, ptr noundef nonnull @.str.15) #13
  br label %22

22:                                               ; preds = %20, %8
  %.not35 = icmp eq i32 %19, 0
  br i1 %.not35, label %24, label %23

23:                                               ; preds = %22
  call fastcc void @append_num_word(ptr noundef %2, i64 noundef %.zext41)
  call void @appendStringInfoString(ptr noundef nonnull %2, ptr noundef nonnull @.str.16) #13
  br label %24

24:                                               ; preds = %23, %22
  %.not36 = icmp eq i32 %17, 0
  br i1 %.not36, label %26, label %25

25:                                               ; preds = %24
  call fastcc void @append_num_word(ptr noundef %2, i64 noundef %.zext)
  call void @appendStringInfoString(ptr noundef nonnull %2, ptr noundef nonnull @.str.17) #13
  br label %26

26:                                               ; preds = %25, %24
  %.not37 = icmp eq i64 %15, 0
  br i1 %.not37, label %28, label %27

27:                                               ; preds = %26
  call fastcc void @append_num_word(ptr noundef %2, i64 noundef %15)
  call void @appendStringInfoString(ptr noundef nonnull %2, ptr noundef nonnull @.str.18) #13
  br label %28

28:                                               ; preds = %27, %26
  %.not38 = icmp eq i64 %13, 0
  br i1 %.not38, label %30, label %29

29:                                               ; preds = %28
  call fastcc void @append_num_word(ptr noundef %2, i64 noundef %13)
  call void @appendStringInfoString(ptr noundef nonnull %2, ptr noundef nonnull @.str.19) #13
  br label %30

30:                                               ; preds = %29, %28
  %.not39 = icmp eq i64 %11, 0
  br i1 %.not39, label %32, label %31

31:                                               ; preds = %30
  call fastcc void @append_num_word(ptr noundef %2, i64 noundef %11)
  br label %32

32:                                               ; preds = %31, %30
  %33 = icmp ult i64 %.0, 100
  br i1 %33, label %34, label %35

34:                                               ; preds = %32
  call void @appendStringInfoString(ptr noundef nonnull %2, ptr noundef nonnull @.str.20) #13
  br label %35

35:                                               ; preds = %34, %32
  %.0.off = add i64 %.0, -100
  %36 = icmp ult i64 %.0.off, 100
  %37 = select i1 %36, ptr @.str.21, ptr @.str.22
  call void @appendStringInfoString(ptr noundef nonnull %2, ptr noundef nonnull %37) #13
  call fastcc void @append_num_word(ptr noundef %2, i64 noundef %10)
  %38 = icmp eq i64 %10, 1
  %39 = select i1 %38, ptr @.str.23, ptr @.str.24
  call void @appendStringInfoString(ptr noundef nonnull %2, ptr noundef nonnull %39) #13
  %40 = load ptr, ptr %2, align 8
  %41 = load i8, ptr %40, align 1
  %42 = call zeroext i8 @pg_toupper(i8 noundef zeroext %41) #13
  %43 = load ptr, ptr %2, align 8
  store i8 %42, ptr %43, align 1
  %44 = load ptr, ptr %2, align 8
  %45 = getelementptr inbounds nuw i8, ptr %2, i64 8
  %46 = load i32, ptr %45, align 8
  %47 = call ptr @cstring_to_text_with_len(ptr noundef %44, i32 noundef %46) #13
  %48 = load ptr, ptr %2, align 8
  call void @pfree(ptr noundef %48) #13
  %49 = ptrtoint ptr %47 to i64
  call void @llvm.lifetime.end.p0(i64 24, ptr nonnull %2) #13
  ret i64 %49
}